; Function Attrs: nounwind uwtable
define dso_local ptr @index_truncate_tuple(ptr noundef %0, ptr noundef %1, i32 noundef %2) local_unnamed_addr #0 {
  %4 = alloca [32 x i64], align 16
  %5 = alloca [32 x i8], align 16
  call void @llvm.lifetime.start.p0(i64 256, ptr nonnull %4) #8
  call void @llvm.lifetime.start.p0(i64 32, ptr nonnull %5) #8
  %6 = load i32, ptr %0, align 8
  %7 = icmp eq i32 %2, %6
  br i1 %7, label %8, label %13

8:                                                ; preds = %3
  %9 = getelementptr i8, ptr %1, i64 6
  %.val.i = load i16, ptr %9, align 2
  %10 = and i16 %.val.i, 8191
  %11 = zext nneg i16 %10 to i64
  %12 = tail call ptr @palloc(i64 noundef %11) #8
  tail call void @llvm.memcpy.p0.p0.i64(ptr align 2 %12, ptr readonly align 2 %1, i64 %11, i1 false)
  br label %22

13:                                               ; preds = %3
  %14 = tail call ptr @CreateTupleDescTruncatedCopy(ptr noundef nonnull %0, i32 noundef %2) #8
  %15 = getelementptr inbounds nuw i8, ptr %1, i64 8
  %16 = getelementptr inbounds nuw i8, ptr %1, i64 6
  %17 = load i16, ptr %16, align 2
  %.not.i.i = icmp sgt i16 %17, -1
  %..i.i = select i1 %.not.i.i, i64 8, i64 16
  %18 = getelementptr inbounds nuw i8, ptr %1, i64 %..i.i
  %.lobit.i = lshr i16 %17, 15
  %19 = zext nneg i16 %.lobit.i to i32
  call void @index_deform_tuple_internal(ptr noundef %14, ptr noundef nonnull %4, ptr noundef nonnull %5, ptr noundef nonnull %18, ptr noundef nonnull %15, i32 noundef %19)
  %20 = load ptr, ptr @CurrentMemoryContext, align 8
  %21 = call ptr @index_form_tuple_context(ptr noundef %14, ptr noundef nonnull readonly %4, ptr noundef nonnull %5, ptr noundef %20)
  call void @llvm.memcpy.p0.p0.i64(ptr noundef nonnull align 2 dereferenceable(6) %21, ptr noundef nonnull align 2 dereferenceable(6) %1, i64 6, i1 false)
  call void @pfree(ptr noundef %14) #8
  br label %22

22:                                               ; preds = %13, %8
  %.0 = phi ptr [ %12, %8 ], [ %21, %13 ]
  call void @llvm.lifetime.end.p0(i64 32, ptr nonnull %5) #8
  call void @llvm.lifetime.end.p0(i64 256, ptr nonnull %4) #8
  ret ptr %.0
}